(lp0
I19
aI33
aI13
aI13
aI44
aI15
aI55
aI33
aI15
aI17
aI16
aI14
aI13
aI14
aI14
aI13
aI13
aI12
aI13
aI15
aI15
aI15
aI17
aI15
aI14
aI17
aI13
aI13
aI17
aI13
aI16
aI17
aI12
aI12
aI13
aI12
aI13
aI13
aI13
aI13
aI12
aI12
aI13
aI12
aI13
aI13
aI13
aI14
aI13
aI13
aI13
aI12
aI14
aI13
aI14
aI12
aI13
aI12
aI13
aI12
aI13
aI12
aI15
aI13
aI15
aI13
aI13
aI12
aI12
aI12
aI13
aI13
aI13
aI13
aI16
aI12
aI13
aI15
aI13
aI13
a.