(lp0
I60
aI60
aI60
aI35
aI60
aI60
aI50
aI60
aI35
aI60
aI60
aI60
aI28
aI60
aI32
aI32
aI30
aI22
aI32
aI60
aI60
aI60
aI60
aI32
aI60
aI60
aI60
aI28
aI60
aI32
aI60
aI60
aI28
aI28
aI28
aI28
aI38
aI50
aI32
aI35
aI28
aI28
aI32
aI32
aI28
aI60
aI28
aI32
aI32
aI32
aI28
aI28
aI35
aI32
aI27
aI26
aI32
aI28
aI28
aI28
aI60
aI60
aI60
aI34
aI60
aI60
aI40
aI60
aI50
aI60
aI30
aI60
aI40
aI35
aI60
aI32
aI32
aI40
aI55
aI50
a.
